target datalayout = "e-m:e-p270:32:32-p271:32:32-p272:64:64-i64:64-i128:128-f80:128-n8:16:32:64-S128"
target triple = "x86_64-pc-linux-gnu"

%struct.global_vm_table_foreach_data = type { ptr, ptr, ptr, i8 }

; Function Attrs: nounwind sspstrong uwtable
define internal i32 @vm_weak_table_foreach_update_weak_key(ptr noundef %0, ptr noundef %1, i64 noundef %2, i32 noundef %3) #0 {
  %5 = alloca i32, align 4
  %6 = alloca ptr, align 8
  %7 = alloca ptr, align 8
  %8 = alloca i64, align 8
  %9 = alloca i32, align 4
  %10 = alloca ptr, align 8
  %11 = alloca i32, align 4
  %12 = alloca i32, align 4
  store ptr %0, ptr %6, align 8, !tbaa !268
  store ptr %1, ptr %7, align 8, !tbaa !268
  store i64 %2, ptr %8, align 8, !tbaa !18
  store i32 %3, ptr %9, align 4, !tbaa !7
  call void @llvm.lifetime.start.p0(i64 8, ptr %10) #6
  %13 = load i64, ptr %8, align 8, !tbaa !18
  %14 = inttoptr i64 %13 to ptr
  store ptr %14, ptr %10, align 8, !tbaa !359
  call void @llvm.lifetime.start.p0(i64 4, ptr %11) #6
  %15 = load ptr, ptr %10, align 8, !tbaa !359
  %16 = getelementptr inbounds nuw %struct.global_vm_table_foreach_data, ptr %15, i32 0, i32 1
  %17 = load ptr, ptr %16, align 8, !tbaa !351
  %18 = load ptr, ptr %6, align 8, !tbaa !268
  %19 = load ptr, ptr %10, align 8, !tbaa !359
  %20 = getelementptr inbounds nuw %struct.global_vm_table_foreach_data, ptr %19, i32 0, i32 2
  %21 = load ptr, ptr %20, align 8, !tbaa !352
  %22 = call i32 %17(ptr noundef %18, ptr noundef %21)
  store i32 %22, ptr %11, align 4, !tbaa !7
  %23 = load ptr, ptr %10, align 8, !tbaa !359
  %24 = getelementptr inbounds nuw %struct.global_vm_table_foreach_data, ptr %23, i32 0, i32 3
  %25 = load i8, ptr %24, align 8, !tbaa !353, !range !122, !noundef !123
  %26 = trunc i8 %25 to i1
  br i1 %26, label %41, label %27

27:                                               ; preds = %4
  %28 = load i32, ptr %11, align 4, !tbaa !7
  %29 = icmp ne i32 %28, 0
  br i1 %29, label %30, label %32

30:                                               ; preds = %27
  %31 = load i32, ptr %11, align 4, !tbaa !7
  store i32 %31, ptr %5, align 4
  store i32 1, ptr %12, align 4
  br label %43

32:                                               ; preds = %27
  %33 = load ptr, ptr %10, align 8, !tbaa !359
  %34 = getelementptr inbounds nuw %struct.global_vm_table_foreach_data, ptr %33, i32 0, i32 1
  %35 = load ptr, ptr %34, align 8, !tbaa !351
  %36 = load ptr, ptr %7, align 8, !tbaa !268
  %37 = load ptr, ptr %10, align 8, !tbaa !359
  %38 = getelementptr inbounds nuw %struct.global_vm_table_foreach_data, ptr %37, i32 0, i32 2
  %39 = load ptr, ptr %38, align 8, !tbaa !352
  %40 = call i32 %35(ptr noundef %36, ptr noundef %39)
  store i32 %40, ptr %11, align 4, !tbaa !7
  br label %41

41:                                               ; preds = %32, %4
  %42 = load i32, ptr %11, align 4, !tbaa !7
  store i32 %42, ptr %5, align 4
  store i32 1, ptr %12, align 4
  br label %43

43:                                               ; preds = %41, %30
  call void @llvm.lifetime.end.p0(i64 4, ptr %11) #6
  call void @llvm.lifetime.end.p0(i64 8, ptr %10) #6
  %44 = load i32, ptr %5, align 4
  ret i32 %44
}