; Function Attrs: nounwind sspstrong uwtable
define internal i32 @vm_weak_table_foreach_update_weak_key(ptr noundef %0, ptr noundef %1, i64 noundef %2, i32 %3) #0 {
  %5 = inttoptr i64 %2 to ptr
  %6 = getelementptr inbounds nuw i8, ptr %5, i64 8
  %7 = load ptr, ptr %6, align 8, !tbaa !367
  %8 = getelementptr inbounds nuw i8, ptr %5, i64 16
  %9 = load ptr, ptr %8, align 8, !tbaa !368
  %10 = tail call i32 %7(ptr noundef %0, ptr noundef %9) #7
  %11 = getelementptr inbounds nuw i8, ptr %5, i64 24
  %12 = load i8, ptr %11, align 8, !tbaa !369, !range !302, !noundef !47
  %13 = trunc nuw i8 %12 to i1
  %.not = icmp ne i32 %10, 0
  %or.cond.not = select i1 %13, i1 true, i1 %.not
  br i1 %or.cond.not, label %18, label %14

14:                                               ; preds = %4
  %15 = load ptr, ptr %6, align 8, !tbaa !367
  %16 = load ptr, ptr %8, align 8, !tbaa !368
  %17 = tail call i32 %15(ptr noundef %1, ptr noundef %16) #7
  br label %18

18:                                               ; preds = %4, %14
  %.011 = phi i32 [ %10, %4 ], [ %17, %14 ]
  ret i32 %.011
}